target datalayout = "e-m:e-p270:32:32-p271:32:32-p272:64:64-i64:64-i128:128-f80:128-n8:16:32:64-S128"
target triple = "x86_64-pc-linux-gnu"

%struct.strbuf = type { i64, i64, ptr }
%struct.string_list = type { ptr, i64, i64, i8, ptr }
%struct.string_list_item = type { ptr, ptr }

@__const.print_error_files.err_msg = private unnamed_addr constant %struct.strbuf { i64 0, i64 0, ptr @strbuf_slopbuf }, align 8
@.str.48 = private unnamed_addr constant [8 x i8] c"\0A    %s\00", align 1
@.str.49 = private unnamed_addr constant [3 x i8] c"%s\00", align 1

; Function Attrs: inlinehint nounwind uwtable
define internal i32 @const_error() #3 {
  ret i32 -1
}

; Function Attrs: inlinehint nounwind uwtable
define internal void @strbuf_addstr(ptr noundef %0, ptr noundef %1) #3 {
  %3 = alloca ptr, align 8
  %4 = alloca ptr, align 8
  store ptr %0, ptr %3, align 8, !tbaa !91
  store ptr %1, ptr %4, align 8, !tbaa !11
  %5 = load ptr, ptr %3, align 8, !tbaa !91
  %6 = load ptr, ptr %4, align 8, !tbaa !11
  %7 = load ptr, ptr %4, align 8, !tbaa !11
  %8 = call i64 @strlen(ptr noundef %7) #14
  call void @strbuf_add(ptr noundef %5, ptr noundef %6, i64 noundef %8)
  ret void
}

; Function Attrs: nounwind uwtable
define internal void @print_error_files(ptr noundef %0, ptr noundef %1, ptr noundef %2, ptr noundef %3) #0 {
  %5 = alloca ptr, align 8
  %6 = alloca ptr, align 8
  %7 = alloca ptr, align 8
  %8 = alloca ptr, align 8
  %9 = alloca i32, align 4
  %10 = alloca %struct.strbuf, align 8
  store ptr %0, ptr %5, align 8, !tbaa !99
  store ptr %1, ptr %6, align 8, !tbaa !11
  store ptr %2, ptr %7, align 8, !tbaa !11
  store ptr %3, ptr %8, align 8, !tbaa !100
  %11 = load ptr, ptr %5, align 8, !tbaa !99
  %12 = getelementptr inbounds nuw %struct.string_list, ptr %11, i32 0, i32 1
  %13 = load i64, ptr %12, align 8, !tbaa !69
  %14 = icmp ne i64 %13, 0
  br i1 %14, label %15, label %47

15:                                               ; preds = %4
  call void @llvm.lifetime.start.p0(i64 4, ptr %9) #11
  call void @llvm.lifetime.start.p0(i64 24, ptr %10) #11
  call void @llvm.memcpy.p0.p0.i64(ptr align 8 %10, ptr align 8 @__const.print_error_files.err_msg, i64 24, i1 false)
  %16 = load ptr, ptr %6, align 8, !tbaa !11
  call void @strbuf_addstr(ptr noundef %10, ptr noundef %16)
  store i32 0, ptr %9, align 4, !tbaa !4
  br label %17

17:                                               ; preds = %33, %15
  %18 = load i32, ptr %9, align 4, !tbaa !4
  %19 = sext i32 %18 to i64
  %20 = load ptr, ptr %5, align 8, !tbaa !99
  %21 = getelementptr inbounds nuw %struct.string_list, ptr %20, i32 0, i32 1
  %22 = load i64, ptr %21, align 8, !tbaa !69
  %23 = icmp ult i64 %19, %22
  br i1 %23, label %24, label %36

24:                                               ; preds = %17
  %25 = load ptr, ptr %5, align 8, !tbaa !99
  %26 = getelementptr inbounds nuw %struct.string_list, ptr %25, i32 0, i32 0
  %27 = load ptr, ptr %26, align 8, !tbaa !102
  %28 = load i32, ptr %9, align 4, !tbaa !4
  %29 = sext i32 %28 to i64
  %30 = getelementptr inbounds %struct.string_list_item, ptr %27, i64 %29
  %31 = getelementptr inbounds nuw %struct.string_list_item, ptr %30, i32 0, i32 0
  %32 = load ptr, ptr %31, align 8, !tbaa !103
  call void (ptr, ptr, ...) @strbuf_addf(ptr noundef %10, ptr noundef @.str.48, ptr noundef %32)
  br label %33

33:                                               ; preds = %24
  %34 = load i32, ptr %9, align 4, !tbaa !4
  %35 = add nsw i32 %34, 1
  store i32 %35, ptr %9, align 4, !tbaa !4
  br label %17, !llvm.loop !105

36:                                               ; preds = %17
  %37 = call i32 @advice_enabled(i32 noundef 31)
  %38 = icmp ne i32 %37, 0
  br i1 %38, label %39, label %41

39:                                               ; preds = %36
  %40 = load ptr, ptr %7, align 8, !tbaa !11
  call void @strbuf_addstr(ptr noundef %10, ptr noundef %40)
  br label %41

41:                                               ; preds = %39, %36
  %42 = getelementptr inbounds nuw %struct.strbuf, ptr %10, i32 0, i32 2
  %43 = load ptr, ptr %42, align 8, !tbaa !96
  %44 = call i32 (ptr, ...) @error(ptr noundef @.str.49, ptr noundef %43)
  %45 = call i32 @const_error()
  %46 = load ptr, ptr %8, align 8, !tbaa !100
  store i32 %45, ptr %46, align 4, !tbaa !4
  call void @strbuf_release(ptr noundef %10)
  call void @llvm.lifetime.end.p0(i64 24, ptr %10) #11
  call void @llvm.lifetime.end.p0(i64 4, ptr %9) #11
  br label %47

47:                                               ; preds = %41, %4
  ret void
}