; Function Attrs: nounwind uwtable
define internal fastcc void @print_error_files(ptr noundef nonnull readonly captures(none) %0, ptr noundef %1, ptr noundef %2, ptr noundef nonnull writeonly captures(none) %3) unnamed_addr #0 {
  %5 = alloca %struct.strbuf, align 8
  %6 = getelementptr inbounds nuw i8, ptr %0, i64 8
  %7 = load i64, ptr %6, align 8, !tbaa !67
  %.not = icmp eq i64 %7, 0
  br i1 %.not, label %23, label %8

8:                                                ; preds = %4
  call void @llvm.lifetime.start.p0(i64 24, ptr nonnull %5) #14
  call void @llvm.memcpy.p0.p0.i64(ptr noundef nonnull align 8 dereferenceable(24) %5, ptr noundef nonnull align 8 dereferenceable(24) @__const.print_error_files.err_msg, i64 24, i1 false)
  %9 = tail call i64 @strlen(ptr noundef nonnull dereferenceable(1) %1) #16
  call void @strbuf_add(ptr noundef nonnull %5, ptr noundef nonnull %1, i64 noundef %9) #14
  %10 = load i64, ptr %6, align 8, !tbaa !67
  %.not11 = icmp eq i64 %10, 0
  br i1 %.not11, label %._crit_edge, label %.lr.ph

.lr.ph:                                           ; preds = %8, %.lr.ph
  %indvars.iv = phi i64 [ %indvars.iv.next, %.lr.ph ], [ 0, %8 ]
  %11 = load ptr, ptr %0, align 8, !tbaa !86
  %12 = getelementptr inbounds nuw %struct.string_list_item, ptr %11, i64 %indvars.iv
  %13 = load ptr, ptr %12, align 8, !tbaa !87
  call void (ptr, ptr, ...) @strbuf_addf(ptr noundef nonnull %5, ptr noundef nonnull @.str.48, ptr noundef %13) #14
  %indvars.iv.next = add nuw nsw i64 %indvars.iv, 1
  %14 = load i64, ptr %6, align 8, !tbaa !67
  %15 = icmp ugt i64 %14, %indvars.iv.next
  br i1 %15, label %.lr.ph, label %._crit_edge, !llvm.loop !89

._crit_edge:                                      ; preds = %.lr.ph, %8
  %16 = call i32 @advice_enabled(i32 noundef 31) #14
  %.not9 = icmp eq i32 %16, 0
  br i1 %.not9, label %19, label %17

17:                                               ; preds = %._crit_edge
  %18 = call i64 @strlen(ptr noundef nonnull dereferenceable(1) %2) #16
  call void @strbuf_add(ptr noundef nonnull %5, ptr noundef nonnull %2, i64 noundef %18) #14
  br label %19

19:                                               ; preds = %17, %._crit_edge
  %20 = getelementptr inbounds nuw i8, ptr %5, i64 16
  %21 = load ptr, ptr %20, align 8, !tbaa !84
  %22 = call i32 (ptr, ...) @error(ptr noundef nonnull @.str.49, ptr noundef %21) #14
  store i32 -1, ptr %3, align 4, !tbaa !15
  call void @strbuf_release(ptr noundef nonnull %5) #14
  call void @llvm.lifetime.end.p0(i64 24, ptr nonnull %5) #14
  br label %23

23:                                               ; preds = %19, %4
  ret void
}